; Function Attrs: nounwind uwtable
define internal noundef i32 @cipher_hw_idea_ofb64_cipher(ptr noundef %0, ptr noundef %1, ptr noundef %2, i64 noundef %3) #1 {
  %5 = alloca i32, align 4
  call void @llvm.lifetime.start.p0(i64 4, ptr nonnull %5) #5
  %6 = getelementptr inbounds nuw i8, ptr %0, i64 160
  %7 = load i32, ptr %6, align 8, !tbaa !15
  store i32 %7, ptr %5, align 4, !tbaa !16
  %8 = getelementptr inbounds nuw i8, ptr %0, i64 192
  %9 = icmp ugt i64 %3, 1073741823
  br i1 %9, label %.lr.ph, label %._crit_edge

.lr.ph:                                           ; preds = %4
  %10 = getelementptr inbounds nuw i8, ptr %0, i64 32
  br label %11

11:                                               ; preds = %.lr.ph, %11
  %.020 = phi ptr [ %1, %.lr.ph ], [ %14, %11 ]
  %.01619 = phi i64 [ %3, %.lr.ph ], [ %12, %11 ]
  %.01718 = phi ptr [ %2, %.lr.ph ], [ %13, %11 ]
  call void @IDEA_ofb64_encrypt(ptr noundef %.01718, ptr noundef %.020, i64 noundef 1073741824, ptr noundef nonnull %8, ptr noundef nonnull %10, ptr noundef nonnull %5) #5
  %12 = add i64 %.01619, -1073741824
  %13 = getelementptr inbounds nuw i8, ptr %.01718, i64 1073741824
  %14 = getelementptr inbounds nuw i8, ptr %.020, i64 1073741824
  %15 = icmp ugt i64 %12, 1073741823
  br i1 %15, label %11, label %._crit_edge, !llvm.loop !17

._crit_edge:                                      ; preds = %11, %4
  %.017.lcssa = phi ptr [ %2, %4 ], [ %13, %11 ]
  %.016.lcssa = phi i64 [ %3, %4 ], [ %12, %11 ]
  %.0.lcssa = phi ptr [ %1, %4 ], [ %14, %11 ]
  %.not = icmp eq i64 %.016.lcssa, 0
  br i1 %.not, label %18, label %16

16:                                               ; preds = %._crit_edge
  %17 = getelementptr inbounds nuw i8, ptr %0, i64 32
  call void @IDEA_ofb64_encrypt(ptr noundef %.017.lcssa, ptr noundef %.0.lcssa, i64 noundef %.016.lcssa, ptr noundef nonnull %8, ptr noundef nonnull %17, ptr noundef nonnull %5) #5
  br label %18

18:                                               ; preds = %16, %._crit_edge
  %19 = load i32, ptr %5, align 4, !tbaa !16
  store i32 %19, ptr %6, align 8, !tbaa !15
  call void @llvm.lifetime.end.p0(i64 4, ptr nonnull %5) #5
  ret i32 1
}